target datalayout = "e-m:e-p270:32:32-p271:32:32-p272:64:64-i64:64-i128:128-f80:128-n8:16:32:64-S128"
target triple = "x86_64-pc-linux-gnu"

%struct.AVFormatContext = type { ptr, ptr, ptr, ptr, ptr, i32, i32, ptr, i32, ptr, i32, ptr, ptr, i64, i64, i64, i32, i32, i32, i64, i64, ptr, i32, i32, ptr, i32, i32, i32, i32, ptr, i64, i32, i32, %struct.AVIOInterruptCB, i32, i32, i32, i32, i64, i32, i32, i32, i32, i32, i32, i32, i32, i32, i32, i32, i32, i64, i32, i32, i32, i32, i32, ptr, ptr, ptr, ptr, i32, ptr, ptr, ptr, ptr, i32, ptr, ptr, i64, ptr, ptr, ptr, i64 }
%struct.AVIOInterruptCB = type { ptr, ptr }
%struct.NSVContext = type { i32, i32, ptr, i32, i32, [2 x %struct.AVPacket], i64, i32, i32, i16, i16, i16, %struct.AVRational, ptr, i32 }
%struct.AVPacket = type { ptr, i64, i64, ptr, i32, i32, i32, ptr, i32, i64, i64, ptr, ptr, %struct.AVRational }
%struct.AVRational = type { i32, i32 }

; Function Attrs: nounwind uwtable
define internal i32 @nsv_read_packet(ptr noundef %0, ptr noundef %1) #0 {
  %3 = alloca i32, align 4
  %4 = alloca ptr, align 8
  %5 = alloca ptr, align 8
  %6 = alloca ptr, align 8
  %7 = alloca i32, align 4
  %8 = alloca i32, align 4
  %9 = alloca i32, align 4
  store ptr %0, ptr %4, align 8, !tbaa !19
  store ptr %1, ptr %5, align 8, !tbaa !49
  call void @llvm.lifetime.start.p0(i64 8, ptr %6) #8
  %10 = load ptr, ptr %4, align 8, !tbaa !19
  %11 = getelementptr inbounds nuw %struct.AVFormatContext, ptr %10, i32 0, i32 3
  %12 = load ptr, ptr %11, align 8, !tbaa !21
  store ptr %12, ptr %6, align 8, !tbaa !36
  call void @llvm.lifetime.start.p0(i64 4, ptr %7) #8
  call void @llvm.lifetime.start.p0(i64 4, ptr %8) #8
  store i32 0, ptr %8, align 4, !tbaa !9
  %13 = load ptr, ptr %6, align 8, !tbaa !36
  %14 = getelementptr inbounds nuw %struct.NSVContext, ptr %13, i32 0, i32 5
  %15 = getelementptr inbounds [2 x %struct.AVPacket], ptr %14, i64 0, i64 0
  %16 = getelementptr inbounds nuw %struct.AVPacket, ptr %15, i32 0, i32 3
  %17 = load ptr, ptr %16, align 8, !tbaa !43
  %18 = icmp ne ptr %17, null
  br i1 %18, label %29, label %19

19:                                               ; preds = %2
  %20 = load ptr, ptr %6, align 8, !tbaa !36
  %21 = getelementptr inbounds nuw %struct.NSVContext, ptr %20, i32 0, i32 5
  %22 = getelementptr inbounds [2 x %struct.AVPacket], ptr %21, i64 0, i64 1
  %23 = getelementptr inbounds nuw %struct.AVPacket, ptr %22, i32 0, i32 3
  %24 = load ptr, ptr %23, align 8, !tbaa !43
  %25 = icmp ne ptr %24, null
  br i1 %25, label %29, label %26

26:                                               ; preds = %19
  %27 = load ptr, ptr %4, align 8, !tbaa !19
  %28 = call i32 @nsv_read_chunk(ptr noundef %27, i32 noundef 0)
  store i32 %28, ptr %8, align 4, !tbaa !9
  br label %29

29:                                               ; preds = %26, %19, %2
  %30 = load i32, ptr %8, align 4, !tbaa !9
  %31 = icmp slt i32 %30, 0
  br i1 %31, label %32, label %34

32:                                               ; preds = %29
  %33 = load i32, ptr %8, align 4, !tbaa !9
  store i32 %33, ptr %3, align 4
  store i32 1, ptr %9, align 4
  br label %59

34:                                               ; preds = %29
  store i32 0, ptr %7, align 4, !tbaa !9
  br label %35

35:                                               ; preds = %55, %34
  %36 = load i32, ptr %7, align 4, !tbaa !9
  %37 = icmp slt i32 %36, 2
  br i1 %37, label %38, label %58

38:                                               ; preds = %35
  %39 = load ptr, ptr %6, align 8, !tbaa !36
  %40 = getelementptr inbounds nuw %struct.NSVContext, ptr %39, i32 0, i32 5
  %41 = load i32, ptr %7, align 4, !tbaa !9
  %42 = sext i32 %41 to i64
  %43 = getelementptr inbounds [2 x %struct.AVPacket], ptr %40, i64 0, i64 %42
  %44 = getelementptr inbounds nuw %struct.AVPacket, ptr %43, i32 0, i32 3
  %45 = load ptr, ptr %44, align 8, !tbaa !43
  %46 = icmp ne ptr %45, null
  br i1 %46, label %47, label %54

47:                                               ; preds = %38
  %48 = load ptr, ptr %5, align 8, !tbaa !49
  %49 = load ptr, ptr %6, align 8, !tbaa !36
  %50 = getelementptr inbounds nuw %struct.NSVContext, ptr %49, i32 0, i32 5
  %51 = load i32, ptr %7, align 4, !tbaa !9
  %52 = sext i32 %51 to i64
  %53 = getelementptr inbounds [2 x %struct.AVPacket], ptr %50, i64 0, i64 %52
  call void @av_packet_move_ref(ptr noundef %48, ptr noundef %53)
  store i32 0, ptr %3, align 4
  store i32 1, ptr %9, align 4
  br label %59

54:                                               ; preds = %38
  br label %55

55:                                               ; preds = %54
  %56 = load i32, ptr %7, align 4, !tbaa !9
  %57 = add nsw i32 %56, 1
  store i32 %57, ptr %7, align 4, !tbaa !9
  br label %35, !llvm.loop !51

58:                                               ; preds = %35
  store i32 -1, ptr %3, align 4
  store i32 1, ptr %9, align 4
  br label %59

59:                                               ; preds = %58, %47, %32
  call void @llvm.lifetime.end.p0(i64 4, ptr %8) #8
  call void @llvm.lifetime.end.p0(i64 4, ptr %7) #8
  call void @llvm.lifetime.end.p0(i64 8, ptr %6) #8
  %60 = load i32, ptr %3, align 4
  ret i32 %60
}