; Function Attrs: nounwind uwtable
define internal range(i32 -2147483648, 1) i32 @nsv_read_packet(ptr noundef %0, ptr noundef %1) #0 {
  %3 = getelementptr inbounds nuw i8, ptr %0, i64 24
  %4 = load ptr, ptr %3, align 8, !tbaa !16
  %5 = getelementptr inbounds nuw i8, ptr %4, i64 24
  %6 = getelementptr inbounds nuw i8, ptr %4, i64 48
  %7 = load ptr, ptr %6, align 8, !tbaa !36
  %.not = icmp eq ptr %7, null
  br i1 %.not, label %8, label %.preheader.preheader

8:                                                ; preds = %2
  %9 = getelementptr inbounds nuw i8, ptr %4, i64 152
  %10 = load ptr, ptr %9, align 8, !tbaa !36
  %.not15 = icmp eq ptr %10, null
  br i1 %.not15, label %11, label %.preheader.preheader

11:                                               ; preds = %8
  %12 = tail call fastcc i32 @nsv_read_chunk(ptr noundef nonnull %0, i32 noundef 0)
  %13 = icmp slt i32 %12, 0
  br i1 %13, label %.loopexit, label %.preheader.preheader

.preheader.preheader:                             ; preds = %8, %2, %11
  br label %.preheader

14:                                               ; preds = %.preheader
  br i1 %15, label %.preheader, label %.loopexit, !llvm.loop !54

.preheader:                                       ; preds = %.preheader.preheader, %14
  %15 = phi i1 [ false, %14 ], [ true, %.preheader.preheader ]
  %indvars.iv = phi i64 [ 1, %14 ], [ 0, %.preheader.preheader ]
  %16 = getelementptr inbounds nuw [2 x %struct.AVPacket], ptr %5, i64 0, i64 %indvars.iv
  %17 = getelementptr inbounds nuw i8, ptr %16, i64 24
  %18 = load ptr, ptr %17, align 8, !tbaa !36
  %.not16 = icmp eq ptr %18, null
  br i1 %.not16, label %14, label %19

19:                                               ; preds = %.preheader
  tail call void @av_packet_move_ref(ptr noundef %1, ptr noundef nonnull %16) #8
  br label %.loopexit

.loopexit:                                        ; preds = %14, %11, %19
  %.014 = phi i32 [ 0, %19 ], [ %12, %11 ], [ -1, %14 ]
  ret i32 %.014
}